; Function Attrs: mustprogress nounwind willreturn uwtable
define void @Iso_StoStop(ptr noundef captures(none) %0) local_unnamed_addr #2 {
  %2 = getelementptr inbounds nuw i8, ptr %0, i64 40
  %3 = load ptr, ptr %2, align 8
  %4 = getelementptr inbounds nuw i8, ptr %3, i64 8
  %5 = load ptr, ptr %4, align 8
  %.not.i = icmp eq ptr %5, null
  br i1 %.not.i, label %Vec_IntFree.exit, label %6

6:                                                ; preds = %1
  tail call void @free(ptr noundef nonnull %5) #17
  br label %Vec_IntFree.exit

Vec_IntFree.exit:                                 ; preds = %1, %6
  tail call void @free(ptr noundef nonnull %3) #17
  %7 = getelementptr inbounds nuw i8, ptr %0, i64 24
  %8 = load ptr, ptr %7, align 8
  %9 = getelementptr inbounds nuw i8, ptr %8, i64 8
  %10 = load ptr, ptr %9, align 8
  %.not.i15 = icmp eq ptr %10, null
  br i1 %.not.i15, label %Vec_IntFree.exit16, label %11

11:                                               ; preds = %Vec_IntFree.exit
  tail call void @free(ptr noundef nonnull %10) #17
  br label %Vec_IntFree.exit16

Vec_IntFree.exit16:                               ; preds = %Vec_IntFree.exit, %11
  tail call void @free(ptr noundef nonnull %8) #17
  %12 = getelementptr inbounds nuw i8, ptr %0, i64 32
  %13 = load ptr, ptr %12, align 8
  %14 = getelementptr inbounds nuw i8, ptr %13, i64 8
  %15 = load ptr, ptr %14, align 8
  %.not.i17 = icmp eq ptr %15, null
  br i1 %.not.i17, label %Vec_PtrFree.exit, label %16

16:                                               ; preds = %Vec_IntFree.exit16
  tail call void @free(ptr noundef nonnull %15) #17
  br label %Vec_PtrFree.exit

Vec_PtrFree.exit:                                 ; preds = %Vec_IntFree.exit16, %16
  tail call void @free(ptr noundef nonnull %13) #17
  %17 = getelementptr inbounds nuw i8, ptr %0, i64 48
  %18 = load ptr, ptr %17, align 8
  %.not = icmp eq ptr %18, null
  br i1 %.not, label %20, label %19

19:                                               ; preds = %Vec_PtrFree.exit
  tail call void @free(ptr noundef nonnull %18) #17
  store ptr null, ptr %17, align 8
  br label %20

20:                                               ; preds = %Vec_PtrFree.exit, %19
  %21 = getelementptr inbounds nuw i8, ptr %0, i64 16
  %22 = load ptr, ptr %21, align 8
  %.not13 = icmp eq ptr %22, null
  br i1 %.not13, label %24, label %23

23:                                               ; preds = %20
  tail call void @free(ptr noundef nonnull %22) #17
  br label %24

24:                                               ; preds = %20, %23
  tail call void @free(ptr noundef nonnull %0) #17
  ret void
}